; ModuleID = '55/230.c'
source_filename = "55/230.c"
target datalayout = "e-m:e-p270:32:32-p271:32:32-p272:64:64-i64:64-f80:128-n8:16:32:64-S128"
target triple = "x86_64-pc-linux-gnu"

@.str = private unnamed_addr constant [9 x i8] c"%d %s %d\00", align 1
@b = common dso_local global i32 0, align 4
@.str.1 = private unnamed_addr constant [3 x i8] c"%c\00", align 1

; Function Attrs: noinline nounwind uwtable
define dso_local void @main() #0 {
  %1 = alloca i32, align 4
  %2 = alloca [10 x i8], align 1
  %3 = alloca i32, align 4
  %4 = alloca i32, align 4
  %5 = alloca i32, align 4
  %6 = getelementptr inbounds [10 x i8], [10 x i8]* %2, i64 0, i64 0
  %7 = call i32 (i8*, ...) @__isoc99_scanf(i8* getelementptr inbounds ([9 x i8], [9 x i8]* @.str, i64 0, i64 0), i32* %1, i8* %6, i32* @b)
  %8 = getelementptr inbounds [10 x i8], [10 x i8]* %2, i64 0, i64 0
  %9 = call i64 @strlen(i8* %8) #3
  %10 = trunc i64 %9 to i32
  store i32 %10, i32* %4, align 4
  store i32 0, i32* %5, align 4
  store i32 0, i32* %3, align 4
  br label %11

11:                                               ; preds = %80, %0
  %12 = load i32, i32* %3, align 4
  %13 = load i32, i32* %4, align 4
  %14 = icmp slt i32 %12, %13
  br i1 %14, label %15, label %83

15:                                               ; preds = %11
  %16 = load i32, i32* %3, align 4
  %17 = sext i32 %16 to i64
  %18 = getelementptr inbounds [10 x i8], [10 x i8]* %2, i64 0, i64 %17
  %19 = load i8, i8* %18, align 1
  %20 = sext i8 %19 to i32
  %21 = icmp sge i32 %20, 48
  br i1 %21, label %22, label %40

22:                                               ; preds = %15
  %23 = load i32, i32* %3, align 4
  %24 = sext i32 %23 to i64
  %25 = getelementptr inbounds [10 x i8], [10 x i8]* %2, i64 0, i64 %24
  %26 = load i8, i8* %25, align 1
  %27 = sext i8 %26 to i32
  %28 = icmp sle i32 %27, 57
  br i1 %28, label %29, label %40

29:                                               ; preds = %22
  %30 = load i32, i32* %5, align 4
  %31 = load i32, i32* %1, align 4
  %32 = mul nsw i32 %30, %31
  %33 = load i32, i32* %3, align 4
  %34 = sext i32 %33 to i64
  %35 = getelementptr inbounds [10 x i8], [10 x i8]* %2, i64 0, i64 %34
  %36 = load i8, i8* %35, align 1
  %37 = sext i8 %36 to i32
  %38 = add nsw i32 %32, %37
  %39 = sub nsw i32 %38, 48
  store i32 %39, i32* %5, align 4
  br label %79

40:                                               ; preds = %22, %15
  %41 = load i32, i32* %3, align 4
  %42 = sext i32 %41 to i64
  %43 = getelementptr inbounds [10 x i8], [10 x i8]* %2, i64 0, i64 %42
  %44 = load i8, i8* %43, align 1
  %45 = sext i8 %44 to i32
  %46 = icmp sge i32 %45, 97
  br i1 %46, label %47, label %66

47:                                               ; preds = %40
  %48 = load i32, i32* %3, align 4
  %49 = sext i32 %48 to i64
  %50 = getelementptr inbounds [10 x i8], [10 x i8]* %2, i64 0, i64 %49
  %51 = load i8, i8* %50, align 1
  %52 = sext i8 %51 to i32
  %53 = icmp sle i32 %52, 122
  br i1 %53, label %54, label %66

54:                                               ; preds = %47
  %55 = load i32, i32* %5, align 4
  %56 = load i32, i32* %1, align 4
  %57 = mul nsw i32 %55, %56
  %58 = load i32, i32* %3, align 4
  %59 = sext i32 %58 to i64
  %60 = getelementptr inbounds [10 x i8], [10 x i8]* %2, i64 0, i64 %59
  %61 = load i8, i8* %60, align 1
  %62 = sext i8 %61 to i32
  %63 = add nsw i32 %57, %62
  %64 = sub nsw i32 %63, 97
  %65 = add nsw i32 %64, 10
  store i32 %65, i32* %5, align 4
  br label %78

66:                                               ; preds = %47, %40
  %67 = load i32, i32* %5, align 4
  %68 = load i32, i32* %1, align 4
  %69 = mul nsw i32 %67, %68
  %70 = load i32, i32* %3, align 4
  %71 = sext i32 %70 to i64
  %72 = getelementptr inbounds [10 x i8], [10 x i8]* %2, i64 0, i64 %71
  %73 = load i8, i8* %72, align 1
  %74 = sext i8 %73 to i32
  %75 = add nsw i32 %69, %74
  %76 = sub nsw i32 %75, 65
  %77 = add nsw i32 %76, 10
  store i32 %77, i32* %5, align 4
  br label %78

78:                                               ; preds = %66, %54
  br label %79

79:                                               ; preds = %78, %29
  br label %80

80:                                               ; preds = %79
  %81 = load i32, i32* %3, align 4
  %82 = add nsw i32 %81, 1
  store i32 %82, i32* %3, align 4
  br label %11

83:                                               ; preds = %11
  %84 = load i32, i32* %5, align 4
  call void @PF(i32 %84)
  ret void
}

declare dso_local i32 @__isoc99_scanf(i8*, ...) #1

; Function Attrs: nounwind readonly
declare dso_local i64 @strlen(i8*) #2

; Function Attrs: noinline nounwind uwtable
define dso_local void @PF(i32 %0) #0 {
  %2 = alloca i32, align 4
  store i32 %0, i32* %2, align 4
  %3 = load i32, i32* %2, align 4
  %4 = load i32, i32* @b, align 4
  %5 = icmp slt i32 %3, %4
  br i1 %5, label %6, label %22

6:                                                ; preds = %1
  %7 = load i32, i32* %2, align 4
  %8 = icmp sge i32 %7, 0
  br i1 %8, label %9, label %16

9:                                                ; preds = %6
  %10 = load i32, i32* %2, align 4
  %11 = icmp sle i32 %10, 9
  br i1 %11, label %12, label %16

12:                                               ; preds = %9
  %13 = load i32, i32* %2, align 4
  %14 = add nsw i32 %13, 48
  %15 = call i32 (i8*, ...) @printf(i8* getelementptr inbounds ([3 x i8], [3 x i8]* @.str.1, i64 0, i64 0), i32 %14)
  br label %21

16:                                               ; preds = %9, %6
  %17 = load i32, i32* %2, align 4
  %18 = sub nsw i32 %17, 10
  %19 = add nsw i32 %18, 65
  %20 = call i32 (i8*, ...) @printf(i8* getelementptr inbounds ([3 x i8], [3 x i8]* @.str.1, i64 0, i64 0), i32 %19)
  br label %21

21:                                               ; preds = %16, %12
  br label %49

22:                                               ; preds = %1
  %23 = load i32, i32* %2, align 4
  %24 = load i32, i32* @b, align 4
  %25 = sdiv i32 %23, %24
  call void @PF(i32 %25)
  %26 = load i32, i32* %2, align 4
  %27 = load i32, i32* @b, align 4
  %28 = srem i32 %26, %27
  %29 = icmp sge i32 %28, 0
  br i1 %29, label %30, label %41

30:                                               ; preds = %22
  %31 = load i32, i32* %2, align 4
  %32 = load i32, i32* @b, align 4
  %33 = srem i32 %31, %32
  %34 = icmp sle i32 %33, 9
  br i1 %34, label %35, label %41

35:                                               ; preds = %30
  %36 = load i32, i32* %2, align 4
  %37 = load i32, i32* @b, align 4
  %38 = srem i32 %36, %37
  %39 = add nsw i32 %38, 48
  %40 = call i32 (i8*, ...) @printf(i8* getelementptr inbounds ([3 x i8], [3 x i8]* @.str.1, i64 0, i64 0), i32 %39)
  br label %48

41:                                               ; preds = %30, %22
  %42 = load i32, i32* %2, align 4
  %43 = load i32, i32* @b, align 4
  %44 = srem i32 %42, %43
  %45 = sub nsw i32 %44, 10
  %46 = add nsw i32 %45, 65
  %47 = call i32 (i8*, ...) @printf(i8* getelementptr inbounds ([3 x i8], [3 x i8]* @.str.1, i64 0, i64 0), i32 %46)
  br label %48

48:                                               ; preds = %41, %35
  br label %49

49:                                               ; preds = %48, %21
  ret void
}

declare dso_local i32 @printf(i8*, ...) #1


!llvm.module.flags = !{!0}
!llvm.ident = !{!1}

!0 = !{i32 1, !"wchar_size", i32 4}
!1 = !{!"clang version 10.0.0-4ubuntu1 "}
